target datalayout = "e-m:e-p270:32:32-p271:32:32-p272:64:64-i64:64-i128:128-f80:128-n8:16:32:64-S128"
target triple = "x86_64-pc-linux-gnu"

%struct.anon = type { [3 x double] }
%struct._generic_N_Vector = type { ptr, ptr, ptr }
%struct._N_VectorContent_Serial = type { i64, i32, ptr }

; Function Attrs: nounwind uwtable
define internal i32 @resB(double noundef %0, ptr noundef %1, ptr noundef %2, ptr noundef %3, ptr noundef %4, ptr noundef %5, ptr noundef %6) #0 {
  %8 = alloca double, align 8
  %9 = alloca ptr, align 8
  %10 = alloca ptr, align 8
  %11 = alloca ptr, align 8
  %12 = alloca ptr, align 8
  %13 = alloca ptr, align 8
  %14 = alloca ptr, align 8
  %15 = alloca ptr, align 8
  %16 = alloca double, align 8
  %17 = alloca double, align 8
  %18 = alloca double, align 8
  %19 = alloca double, align 8
  %20 = alloca double, align 8
  %21 = alloca double, align 8
  %22 = alloca double, align 8
  %23 = alloca double, align 8
  %24 = alloca double, align 8
  %25 = alloca double, align 8
  %26 = alloca double, align 8
  store double %0, ptr %8, align 8, !tbaa !18
  store ptr %1, ptr %9, align 8, !tbaa !16
  store ptr %2, ptr %10, align 8, !tbaa !16
  store ptr %3, ptr %11, align 8, !tbaa !16
  store ptr %4, ptr %12, align 8, !tbaa !16
  store ptr %5, ptr %13, align 8, !tbaa !16
  store ptr %6, ptr %14, align 8, !tbaa !11
  call void @llvm.lifetime.start.p0(i64 8, ptr %15) #6
  call void @llvm.lifetime.start.p0(i64 8, ptr %16) #6
  call void @llvm.lifetime.start.p0(i64 8, ptr %17) #6
  call void @llvm.lifetime.start.p0(i64 8, ptr %18) #6
  call void @llvm.lifetime.start.p0(i64 8, ptr %19) #6
  call void @llvm.lifetime.start.p0(i64 8, ptr %20) #6
  call void @llvm.lifetime.start.p0(i64 8, ptr %21) #6
  call void @llvm.lifetime.start.p0(i64 8, ptr %22) #6
  call void @llvm.lifetime.start.p0(i64 8, ptr %23) #6
  call void @llvm.lifetime.start.p0(i64 8, ptr %24) #6
  call void @llvm.lifetime.start.p0(i64 8, ptr %25) #6
  call void @llvm.lifetime.start.p0(i64 8, ptr %26) #6
  %27 = load ptr, ptr %14, align 8, !tbaa !11
  store ptr %27, ptr %15, align 8, !tbaa !11
  %28 = load ptr, ptr %15, align 8, !tbaa !11
  %29 = getelementptr inbounds nuw %struct.anon, ptr %28, i32 0, i32 0
  %30 = getelementptr inbounds [3 x double], ptr %29, i64 0, i64 0
  %31 = load double, ptr %30, align 8, !tbaa !18
  store double %31, ptr %18, align 8, !tbaa !18
  %32 = load ptr, ptr %15, align 8, !tbaa !11
  %33 = getelementptr inbounds nuw %struct.anon, ptr %32, i32 0, i32 0
  %34 = getelementptr inbounds [3 x double], ptr %33, i64 0, i64 1
  %35 = load double, ptr %34, align 8, !tbaa !18
  store double %35, ptr %19, align 8, !tbaa !18
  %36 = load ptr, ptr %15, align 8, !tbaa !11
  %37 = getelementptr inbounds nuw %struct.anon, ptr %36, i32 0, i32 0
  %38 = getelementptr inbounds [3 x double], ptr %37, i64 0, i64 2
  %39 = load double, ptr %38, align 8, !tbaa !18
  store double %39, ptr %20, align 8, !tbaa !18
  %40 = load ptr, ptr %9, align 8, !tbaa !16
  %41 = getelementptr inbounds nuw %struct._generic_N_Vector, ptr %40, i32 0, i32 0
  %42 = load ptr, ptr %41, align 8, !tbaa !22
  %43 = getelementptr inbounds nuw %struct._N_VectorContent_Serial, ptr %42, i32 0, i32 2
  %44 = load ptr, ptr %43, align 8, !tbaa !25
  %45 = getelementptr inbounds double, ptr %44, i64 1
  %46 = load double, ptr %45, align 8, !tbaa !18
  store double %46, ptr %16, align 8, !tbaa !18
  %47 = load ptr, ptr %9, align 8, !tbaa !16
  %48 = getelementptr inbounds nuw %struct._generic_N_Vector, ptr %47, i32 0, i32 0
  %49 = load ptr, ptr %48, align 8, !tbaa !22
  %50 = getelementptr inbounds nuw %struct._N_VectorContent_Serial, ptr %49, i32 0, i32 2
  %51 = load ptr, ptr %50, align 8, !tbaa !25
  %52 = getelementptr inbounds double, ptr %51, i64 2
  %53 = load double, ptr %52, align 8, !tbaa !18
  store double %53, ptr %17, align 8, !tbaa !18
  %54 = load ptr, ptr %11, align 8, !tbaa !16
  %55 = getelementptr inbounds nuw %struct._generic_N_Vector, ptr %54, i32 0, i32 0
  %56 = load ptr, ptr %55, align 8, !tbaa !22
  %57 = getelementptr inbounds nuw %struct._N_VectorContent_Serial, ptr %56, i32 0, i32 2
  %58 = load ptr, ptr %57, align 8, !tbaa !25
  %59 = getelementptr inbounds double, ptr %58, i64 0
  %60 = load double, ptr %59, align 8, !tbaa !18
  store double %60, ptr %21, align 8, !tbaa !18
  %61 = load ptr, ptr %11, align 8, !tbaa !16
  %62 = getelementptr inbounds nuw %struct._generic_N_Vector, ptr %61, i32 0, i32 0
  %63 = load ptr, ptr %62, align 8, !tbaa !22
  %64 = getelementptr inbounds nuw %struct._N_VectorContent_Serial, ptr %63, i32 0, i32 2
  %65 = load ptr, ptr %64, align 8, !tbaa !25
  %66 = getelementptr inbounds double, ptr %65, i64 1
  %67 = load double, ptr %66, align 8, !tbaa !18
  store double %67, ptr %22, align 8, !tbaa !18
  %68 = load ptr, ptr %11, align 8, !tbaa !16
  %69 = getelementptr inbounds nuw %struct._generic_N_Vector, ptr %68, i32 0, i32 0
  %70 = load ptr, ptr %69, align 8, !tbaa !22
  %71 = getelementptr inbounds nuw %struct._N_VectorContent_Serial, ptr %70, i32 0, i32 2
  %72 = load ptr, ptr %71, align 8, !tbaa !25
  %73 = getelementptr inbounds double, ptr %72, i64 2
  %74 = load double, ptr %73, align 8, !tbaa !18
  store double %74, ptr %23, align 8, !tbaa !18
  %75 = load ptr, ptr %12, align 8, !tbaa !16
  %76 = getelementptr inbounds nuw %struct._generic_N_Vector, ptr %75, i32 0, i32 0
  %77 = load ptr, ptr %76, align 8, !tbaa !22
  %78 = getelementptr inbounds nuw %struct._N_VectorContent_Serial, ptr %77, i32 0, i32 2
  %79 = load ptr, ptr %78, align 8, !tbaa !25
  %80 = getelementptr inbounds double, ptr %79, i64 0
  %81 = load double, ptr %80, align 8, !tbaa !18
  store double %81, ptr %24, align 8, !tbaa !18
  %82 = load ptr, ptr %12, align 8, !tbaa !16
  %83 = getelementptr inbounds nuw %struct._generic_N_Vector, ptr %82, i32 0, i32 0
  %84 = load ptr, ptr %83, align 8, !tbaa !22
  %85 = getelementptr inbounds nuw %struct._N_VectorContent_Serial, ptr %84, i32 0, i32 2
  %86 = load ptr, ptr %85, align 8, !tbaa !25
  %87 = getelementptr inbounds double, ptr %86, i64 1
  %88 = load double, ptr %87, align 8, !tbaa !18
  store double %88, ptr %25, align 8, !tbaa !18
  %89 = load double, ptr %22, align 8, !tbaa !18
  %90 = load double, ptr %21, align 8, !tbaa !18
  %91 = fsub double %89, %90
  store double %91, ptr %26, align 8, !tbaa !18
  %92 = load double, ptr %24, align 8, !tbaa !18
  %93 = load double, ptr %18, align 8, !tbaa !18
  %94 = load double, ptr %26, align 8, !tbaa !18
  %95 = call double @llvm.fmuladd.f64(double %93, double %94, double %92)
  %96 = load double, ptr %23, align 8, !tbaa !18
  %97 = fsub double %95, %96
  %98 = load ptr, ptr %13, align 8, !tbaa !16
  %99 = getelementptr inbounds nuw %struct._generic_N_Vector, ptr %98, i32 0, i32 0
  %100 = load ptr, ptr %99, align 8, !tbaa !22
  %101 = getelementptr inbounds nuw %struct._N_VectorContent_Serial, ptr %100, i32 0, i32 2
  %102 = load ptr, ptr %101, align 8, !tbaa !25
  %103 = getelementptr inbounds double, ptr %102, i64 0
  store double %97, ptr %103, align 8, !tbaa !18
  %104 = load double, ptr %25, align 8, !tbaa !18
  %105 = load double, ptr %19, align 8, !tbaa !18
  %106 = load double, ptr %17, align 8, !tbaa !18
  %107 = fmul double %105, %106
  %108 = load double, ptr %26, align 8, !tbaa !18
  %109 = fneg double %107
  %110 = call double @llvm.fmuladd.f64(double %109, double %108, double %104)
  %111 = load double, ptr %20, align 8, !tbaa !18
  %112 = fmul double 2.000000e+00, %111
  %113 = load double, ptr %16, align 8, !tbaa !18
  %114 = fmul double %112, %113
  %115 = load double, ptr %22, align 8, !tbaa !18
  %116 = fneg double %114
  %117 = call double @llvm.fmuladd.f64(double %116, double %115, double %110)
  %118 = load double, ptr %23, align 8, !tbaa !18
  %119 = fsub double %117, %118
  %120 = load ptr, ptr %13, align 8, !tbaa !16
  %121 = getelementptr inbounds nuw %struct._generic_N_Vector, ptr %120, i32 0, i32 0
  %122 = load ptr, ptr %121, align 8, !tbaa !22
  %123 = getelementptr inbounds nuw %struct._N_VectorContent_Serial, ptr %122, i32 0, i32 2
  %124 = load ptr, ptr %123, align 8, !tbaa !25
  %125 = getelementptr inbounds double, ptr %124, i64 1
  store double %119, ptr %125, align 8, !tbaa !18
  %126 = load double, ptr %19, align 8, !tbaa !18
  %127 = fneg double %126
  %128 = load double, ptr %16, align 8, !tbaa !18
  %129 = fmul double %127, %128
  %130 = load double, ptr %26, align 8, !tbaa !18
  %131 = load double, ptr %23, align 8, !tbaa !18
  %132 = fneg double %131
  %133 = call double @llvm.fmuladd.f64(double %129, double %130, double %132)
  %134 = fadd double %133, 1.000000e+00
  %135 = load ptr, ptr %13, align 8, !tbaa !16
  %136 = getelementptr inbounds nuw %struct._generic_N_Vector, ptr %135, i32 0, i32 0
  %137 = load ptr, ptr %136, align 8, !tbaa !22
  %138 = getelementptr inbounds nuw %struct._N_VectorContent_Serial, ptr %137, i32 0, i32 2
  %139 = load ptr, ptr %138, align 8, !tbaa !25
  %140 = getelementptr inbounds double, ptr %139, i64 2
  store double %134, ptr %140, align 8, !tbaa !18
  call void @llvm.lifetime.end.p0(i64 8, ptr %26) #6
  call void @llvm.lifetime.end.p0(i64 8, ptr %25) #6
  call void @llvm.lifetime.end.p0(i64 8, ptr %24) #6
  call void @llvm.lifetime.end.p0(i64 8, ptr %23) #6
  call void @llvm.lifetime.end.p0(i64 8, ptr %22) #6
  call void @llvm.lifetime.end.p0(i64 8, ptr %21) #6
  call void @llvm.lifetime.end.p0(i64 8, ptr %20) #6
  call void @llvm.lifetime.end.p0(i64 8, ptr %19) #6
  call void @llvm.lifetime.end.p0(i64 8, ptr %18) #6
  call void @llvm.lifetime.end.p0(i64 8, ptr %17) #6
  call void @llvm.lifetime.end.p0(i64 8, ptr %16) #6
  call void @llvm.lifetime.end.p0(i64 8, ptr %15) #6
  ret i32 0
}