; Function Attrs: mustprogress nofree norecurse nosync nounwind willreturn memory(readwrite, inaccessiblemem: none) uwtable
define internal noundef i32 @resB(double %0, ptr noundef readonly captures(none) %1, ptr readnone captures(none) %2, ptr noundef readonly captures(none) %3, ptr noundef readonly captures(none) %4, ptr noundef readonly captures(none) %5, ptr noundef readonly captures(none) %6) #6 {
  %8 = load double, ptr %6, align 8, !tbaa !9
  %9 = getelementptr inbounds nuw i8, ptr %6, i64 8
  %10 = load double, ptr %9, align 8, !tbaa !9
  %11 = getelementptr inbounds nuw i8, ptr %6, i64 16
  %12 = load double, ptr %11, align 8, !tbaa !9
  %13 = load ptr, ptr %1, align 8, !tbaa !13
  %14 = getelementptr inbounds nuw i8, ptr %13, i64 16
  %15 = load ptr, ptr %14, align 8, !tbaa !16
  %16 = getelementptr inbounds nuw i8, ptr %15, i64 8
  %17 = load double, ptr %16, align 8, !tbaa !9
  %18 = getelementptr inbounds nuw i8, ptr %15, i64 16
  %19 = load double, ptr %18, align 8, !tbaa !9
  %20 = load ptr, ptr %3, align 8, !tbaa !13
  %21 = getelementptr inbounds nuw i8, ptr %20, i64 16
  %22 = load ptr, ptr %21, align 8, !tbaa !16
  %23 = load double, ptr %22, align 8, !tbaa !9
  %24 = getelementptr inbounds nuw i8, ptr %22, i64 8
  %25 = load double, ptr %24, align 8, !tbaa !9
  %26 = getelementptr inbounds nuw i8, ptr %22, i64 16
  %27 = load double, ptr %26, align 8, !tbaa !9
  %28 = load ptr, ptr %4, align 8, !tbaa !13
  %29 = getelementptr inbounds nuw i8, ptr %28, i64 16
  %30 = load ptr, ptr %29, align 8, !tbaa !16
  %31 = load double, ptr %30, align 8, !tbaa !9
  %32 = getelementptr inbounds nuw i8, ptr %30, i64 8
  %33 = load double, ptr %32, align 8, !tbaa !9
  %34 = fsub double %25, %23
  %35 = tail call double @llvm.fmuladd.f64(double %8, double %34, double %31)
  %36 = fsub double %35, %27
  %37 = load ptr, ptr %5, align 8, !tbaa !13
  %38 = getelementptr inbounds nuw i8, ptr %37, i64 16
  %39 = load ptr, ptr %38, align 8, !tbaa !16
  store double %36, ptr %39, align 8, !tbaa !9
  %40 = fneg double %19
  %41 = fmul double %10, %40
  %42 = tail call double @llvm.fmuladd.f64(double %41, double %34, double %33)
  %43 = fmul double %12, 2.000000e+00
  %44 = fneg double %17
  %45 = fmul double %43, %44
  %46 = tail call double @llvm.fmuladd.f64(double %45, double %25, double %42)
  %47 = fsub double %46, %27
  %48 = getelementptr inbounds nuw i8, ptr %39, i64 8
  store double %47, ptr %48, align 8, !tbaa !9
  %49 = fneg double %10
  %50 = fmul double %17, %49
  %51 = fneg double %27
  %52 = tail call double @llvm.fmuladd.f64(double %50, double %34, double %51)
  %53 = fadd double %52, 1.000000e+00
  %54 = getelementptr inbounds nuw i8, ptr %39, i64 16
  store double %53, ptr %54, align 8, !tbaa !9
  ret i32 0
}